; ModuleID = 'probe6.255734b2-cgu.0'
source_filename = "probe6.255734b2-cgu.0"
target datalayout = "e-m:w-p270:32:32-p271:32:32-p272:64:64-i64:64-f80:128-n8:16:32:64-S128"
target triple = "x86_64-pc-windows-msvc"

@alloc3 = private unnamed_addr constant <{ [75 x i8] }> <{ [75 x i8] c"/rustc/d5a82bbd26e1ad8b7401f6a718a9c57c96905483\\library\\core\\src\\num\\mod.rs" }>, align 1
@alloc4 = private unnamed_addr constant <{ ptr, [16 x i8] }> <{ ptr @alloc3, [16 x i8] c"K\00\00\00\00\00\00\00\99\03\00\00\05\00\00\00" }>, align 8
@str.0 = internal constant [25 x i8] c"attempt to divide by zero"

; probe6::probe
; Function Attrs: uwtable
define void @_ZN6probe65probe17hb61955c5a6d7a8baE() unnamed_addr #0 {
start:
  %0 = call i1 @llvm.expect.i1(i1 false, i1 false)
  br i1 %0, label %panic.i, label %"_ZN4core3num21_$LT$impl$u20$u32$GT$10div_euclid17h25ae558ef1e172dbE.exit"

panic.i:                                          ; preds = %start
; call core::panicking::panic
  call void @_ZN4core9panicking5panic17h2d50e3e44ac775d8E(ptr align 1 @str.0, i64 25, ptr align 8 @alloc4) #3
  unreachable

"_ZN4core3num21_$LT$impl$u20$u32$GT$10div_euclid17h25ae558ef1e172dbE.exit": ; preds = %start
  ret void
}

; Function Attrs: nocallback nofree nosync nounwind readnone willreturn
declare i1 @llvm.expect.i1(i1, i1) #1

; core::panicking::panic
; Function Attrs: cold noinline noreturn uwtable
declare void @_ZN4core9panicking5panic17h2d50e3e44ac775d8E(ptr align 1, i64, ptr align 8) unnamed_addr #2

attributes #0 = { uwtable "target-cpu"="x86-64" }
attributes #1 = { nocallback nofree nosync nounwind readnone willreturn }
attributes #2 = { cold noinline noreturn uwtable "target-cpu"="x86-64" }
attributes #3 = { noreturn }

!llvm.module.flags = !{!0}

!0 = !{i32 7, !"PIC Level", i32 2}
